; Function Attrs: nofree norecurse nosync nounwind memory(read, argmem: readwrite, inaccessiblemem: none) uwtable
define internal fastcc i32 @limited_kth_order_egk_decode(ptr noundef captures(none) %0, i32 noundef range(i32 -2147483647, -2147483648) %1, i32 noundef range(i32 -229, 27) %2, i32 noundef range(i32 0, 256) %3) unnamed_addr #4 {
  %5 = icmp sgt i32 %2, 0
  br i1 %5, label %.lr.ph, label %.critedge

.lr.ph:                                           ; preds = %4
  %6 = getelementptr inbounds nuw i8, ptr %0, i64 16
  %7 = getelementptr inbounds nuw i8, ptr %0, i64 24
  %8 = getelementptr inbounds nuw i8, ptr %0, i64 4
  %9 = load i32, ptr %8, align 4, !tbaa !100
  %10 = shl i32 %9, 17
  %.promoted = load i32, ptr %0, align 8, !tbaa !70
  br label %11

11:                                               ; preds = %.lr.ph, %33
  %12 = phi i32 [ %.promoted, %.lr.ph ], [ %34, %33 ]
  %.01623 = phi i32 [ 0, %.lr.ph ], [ %35, %33 ]
  %13 = shl nsw i32 %12, 1
  store i32 %13, ptr %0, align 8, !tbaa !70
  %14 = and i32 %12, 32767
  %.not.i = icmp eq i32 %14, 0
  br i1 %.not.i, label %15, label %refill.exit.i

15:                                               ; preds = %11
  %16 = load ptr, ptr %6, align 8, !tbaa !68
  %17 = load i8, ptr %16, align 1, !tbaa !97
  %18 = zext i8 %17 to i32
  %19 = shl nuw nsw i32 %18, 9
  %20 = getelementptr inbounds nuw i8, ptr %16, i64 1
  %21 = load i8, ptr %20, align 1, !tbaa !97
  %22 = zext i8 %21 to i32
  %23 = shl nuw nsw i32 %22, 1
  %24 = or disjoint i32 %23, %19
  %25 = add i32 %13, -65535
  %26 = add i32 %25, %24
  store i32 %26, ptr %0, align 8, !tbaa !70
  %27 = load ptr, ptr %7, align 8, !tbaa !71
  %28 = icmp ult ptr %16, %27
  br i1 %28, label %29, label %refill.exit.i

29:                                               ; preds = %15
  %30 = getelementptr inbounds nuw i8, ptr %16, i64 2
  store ptr %30, ptr %6, align 8, !tbaa !68
  br label %refill.exit.i

refill.exit.i:                                    ; preds = %29, %15, %11
  %31 = phi i32 [ %26, %29 ], [ %26, %15 ], [ %13, %11 ]
  %32 = icmp slt i32 %31, %10
  br i1 %32, label %.critedge, label %33

33:                                               ; preds = %refill.exit.i
  %34 = sub nsw i32 %31, %10
  store i32 %34, ptr %0, align 8, !tbaa !70
  %35 = add nuw nsw i32 %.01623, 1
  %exitcond.not = icmp eq i32 %35, %2
  br i1 %exitcond.not, label %.critedge, label %11, !llvm.loop !151

.critedge:                                        ; preds = %33, %refill.exit.i, %4
  %.016.lcssa = phi i32 [ 0, %4 ], [ %.01623, %refill.exit.i ], [ %2, %33 ]
  %36 = icmp eq i32 %.016.lcssa, %2
  %37 = add nsw i32 %.016.lcssa, %1
  %.015 = select i1 %36, i32 %3, i32 %37
  %38 = icmp sgt i32 %.015, 0
  br i1 %38, label %.lr.ph27, label %._crit_edge

.lr.ph27:                                         ; preds = %.critedge
  %39 = getelementptr inbounds nuw i8, ptr %0, i64 16
  %40 = getelementptr inbounds nuw i8, ptr %0, i64 24
  %41 = getelementptr inbounds nuw i8, ptr %0, i64 4
  %42 = load i32, ptr %41, align 4, !tbaa !100
  %43 = shl i32 %42, 17
  %.promoted29 = load i32, ptr %0, align 8, !tbaa !70
  br label %44

44:                                               ; preds = %.lr.ph27, %get_cabac_bypass.exit20
  %45 = phi i32 [ %.promoted29, %.lr.ph27 ], [ %70, %get_cabac_bypass.exit20 ]
  %.026 = phi i32 [ 0, %.lr.ph27 ], [ %71, %get_cabac_bypass.exit20 ]
  %.125 = phi i32 [ %.015, %.lr.ph27 ], [ %46, %get_cabac_bypass.exit20 ]
  %46 = add nsw i32 %.125, -1
  %47 = shl i32 %.026, 1
  %48 = shl nsw i32 %45, 1
  store i32 %48, ptr %0, align 8, !tbaa !70
  %49 = and i32 %45, 32767
  %.not.i17 = icmp eq i32 %49, 0
  br i1 %.not.i17, label %50, label %refill.exit.i18

50:                                               ; preds = %44
  %51 = load ptr, ptr %39, align 8, !tbaa !68
  %52 = load i8, ptr %51, align 1, !tbaa !97
  %53 = zext i8 %52 to i32
  %54 = shl nuw nsw i32 %53, 9
  %55 = getelementptr inbounds nuw i8, ptr %51, i64 1
  %56 = load i8, ptr %55, align 1, !tbaa !97
  %57 = zext i8 %56 to i32
  %58 = shl nuw nsw i32 %57, 1
  %59 = or disjoint i32 %58, %54
  %60 = add i32 %48, -65535
  %61 = add i32 %60, %59
  store i32 %61, ptr %0, align 8, !tbaa !70
  %62 = load ptr, ptr %40, align 8, !tbaa !71
  %63 = icmp ult ptr %51, %62
  br i1 %63, label %64, label %refill.exit.i18

64:                                               ; preds = %50
  %65 = getelementptr inbounds nuw i8, ptr %51, i64 2
  store ptr %65, ptr %39, align 8, !tbaa !68
  br label %refill.exit.i18

refill.exit.i18:                                  ; preds = %64, %50, %44
  %66 = phi i32 [ %61, %64 ], [ %61, %50 ], [ %48, %44 ]
  %67 = icmp slt i32 %66, %43
  br i1 %67, label %get_cabac_bypass.exit20, label %68

68:                                               ; preds = %refill.exit.i18
  %69 = sub nsw i32 %66, %43
  store i32 %69, ptr %0, align 8, !tbaa !70
  br label %get_cabac_bypass.exit20

get_cabac_bypass.exit20:                          ; preds = %refill.exit.i18, %68
  %70 = phi i32 [ %69, %68 ], [ %66, %refill.exit.i18 ]
  %.0.i19 = phi i32 [ 1, %68 ], [ 0, %refill.exit.i18 ]
  %71 = or disjoint i32 %.0.i19, %47
  %72 = icmp samesign ugt i32 %.125, 1
  br i1 %72, label %44, label %._crit_edge, !llvm.loop !152

._crit_edge:                                      ; preds = %get_cabac_bypass.exit20, %.critedge
  %.0.lcssa = phi i32 [ 0, %.critedge ], [ %71, %get_cabac_bypass.exit20 ]
  %notmask = shl nsw i32 -1, %.016.lcssa
  %73 = xor i32 %notmask, -1
  %74 = shl i32 %73, %1
  %75 = add nsw i32 %.0.lcssa, %74
  ret i32 %75
}